; ModuleID = 'source-C-CXX/0/1098.cpp'
source_filename = "source-C-CXX/0/1098.cpp"
target datalayout = "e-m:e-p270:32:32-p271:32:32-p272:64:64-i64:64-f80:128-n8:16:32:64-S128"
target triple = "x86_64-pc-linux-gnu"

%"class.std::ios_base::Init" = type { i8 }
%"class.std::basic_istream" = type { i32 (...)**, i64, %"class.std::basic_ios" }
%"class.std::basic_ios" = type { %"class.std::ios_base", %"class.std::basic_ostream"*, i8, i8, %"class.std::basic_streambuf"*, %"class.std::ctype"*, %"class.std::num_put"*, %"class.std::num_get"* }
%"class.std::ios_base" = type { i32 (...)**, i64, i64, i32, i32, i32, %"struct.std::ios_base::_Callback_list"*, %"struct.std::ios_base::_Words", [8 x %"struct.std::ios_base::_Words"], i32, %"struct.std::ios_base::_Words"*, %"class.std::locale" }
%"struct.std::ios_base::_Callback_list" = type { %"struct.std::ios_base::_Callback_list"*, void (i32, %"class.std::ios_base"*, i32)*, i32, i32 }
%"struct.std::ios_base::_Words" = type { i8*, i64 }
%"class.std::locale" = type { %"class.std::locale::_Impl"* }
%"class.std::locale::_Impl" = type { i32, %"class.std::locale::facet"**, i64, %"class.std::locale::facet"**, i8** }
%"class.std::locale::facet" = type <{ i32 (...)**, i32, [4 x i8] }>
%"class.std::basic_ostream" = type { i32 (...)**, %"class.std::basic_ios" }
%"class.std::basic_streambuf" = type { i32 (...)**, i8*, i8*, i8*, i8*, i8*, i8*, %"class.std::locale" }
%"class.std::ctype" = type <{ %"class.std::locale::facet.base", [4 x i8], %struct.__locale_struct*, i8, [7 x i8], i32*, i32*, i16*, i8, [256 x i8], [256 x i8], i8, [6 x i8] }>
%"class.std::locale::facet.base" = type <{ i32 (...)**, i32 }>
%struct.__locale_struct = type { [13 x %struct.__locale_data*], i16*, i32*, i32*, [13 x i8*] }
%struct.__locale_data = type opaque
%"class.std::num_put" = type { %"class.std::locale::facet.base", [4 x i8] }
%"class.std::num_get" = type { %"class.std::locale::facet.base", [4 x i8] }

@_ZStL8__ioinit = internal global %"class.std::ios_base::Init" zeroinitializer, align 1
@__dso_handle = external hidden global i8
@_ZSt3cin = external global %"class.std::basic_istream", align 8
@_ZSt4cout = external global %"class.std::basic_ostream", align 8
@llvm.global_ctors = appending global [1 x { i32, void ()*, i8* }] [{ i32, void ()*, i8* } { i32 65535, void ()* @_GLOBAL__sub_I_1098.cpp, i8* null }]

declare void @_ZNSt8ios_base4InitC1Ev(%"class.std::ios_base::Init"* nonnull align 1 dereferenceable(1)) unnamed_addr #0

; Function Attrs: nounwind
declare void @_ZNSt8ios_base4InitD1Ev(%"class.std::ios_base::Init"* nonnull align 1 dereferenceable(1)) unnamed_addr #1

; Function Attrs: nofree nounwind
declare i32 @__cxa_atexit(void (i8*)*, i8*, i8*) local_unnamed_addr #2

; Function Attrs: mustprogress nofree nosync nounwind readnone sspstrong uwtable willreturn
define dso_local i32 @_Z5countii(i32 %0, i32 %1) local_unnamed_addr #3 {
  %3 = srem i32 %0, %1
  %4 = sdiv i32 %0, %1
  %5 = icmp eq i32 %3, 0
  br i1 %5, label %6, label %17

6:                                                ; preds = %2
  %7 = icmp eq i32 %0, %1
  br i1 %7, label %17, label %8

8:                                                ; preds = %6
  %9 = icmp slt i32 %4, %1
  br i1 %9, label %17, label %10

10:                                               ; preds = %8, %10
  %11 = phi i32 [ %15, %10 ], [ %1, %8 ]
  %12 = phi i32 [ %14, %10 ], [ 0, %8 ]
  %13 = tail call i32 @_Z5countii(i32 %4, i32 %11)
  %14 = add nsw i32 %13, %12
  %15 = add i32 %11, 1
  %16 = icmp eq i32 %11, %4
  br i1 %16, label %17, label %10, !llvm.loop !5

17:                                               ; preds = %10, %8, %6, %2
  %18 = phi i32 [ 0, %2 ], [ 1, %6 ], [ 0, %8 ], [ %14, %10 ]
  ret i32 %18
}

; Function Attrs: argmemonly mustprogress nofree nosync nounwind willreturn
declare void @llvm.lifetime.start.p0i8(i64 immarg, i8* nocapture) #4

; Function Attrs: argmemonly mustprogress nofree nosync nounwind willreturn
declare void @llvm.lifetime.end.p0i8(i64 immarg, i8* nocapture) #4

; Function Attrs: mustprogress norecurse sspstrong uwtable
define dso_local i32 @main() local_unnamed_addr #5 {
  %1 = alloca i32, align 4
  %2 = alloca i32, align 4
  %3 = bitcast i32* %1 to i8*
  call void @llvm.lifetime.start.p0i8(i64 4, i8* nonnull %3) #8
  %4 = bitcast i32* %2 to i8*
  call void @llvm.lifetime.start.p0i8(i64 4, i8* nonnull %4) #8
  %5 = call nonnull align 8 dereferenceable(16) %"class.std::basic_istream"* @_ZNSirsERi(%"class.std::basic_istream"* nonnull align 8 dereferenceable(16) @_ZSt3cin, i32* nonnull align 4 dereferenceable(4) %1)
  %6 = load i32, i32* %1, align 4, !tbaa !7
  %7 = icmp slt i32 %6, 1
  br i1 %7, label %8, label %9

8:                                                ; preds = %42, %0
  call void @llvm.lifetime.end.p0i8(i64 4, i8* nonnull %4) #8
  call void @llvm.lifetime.end.p0i8(i64 4, i8* nonnull %3) #8
  ret i32 0

9:                                                ; preds = %0, %42
  %10 = phi i32 [ %46, %42 ], [ 1, %0 ]
  %11 = call nonnull align 8 dereferenceable(16) %"class.std::basic_istream"* @_ZNSirsERi(%"class.std::basic_istream"* nonnull align 8 dereferenceable(16) @_ZSt3cin, i32* nonnull align 4 dereferenceable(4) %2)
  %12 = load i32, i32* %2, align 4, !tbaa !7
  %13 = icmp slt i32 %12, 2
  br i1 %13, label %14, label %49

14:                                               ; preds = %49, %9
  %15 = phi i32 [ 0, %9 ], [ %53, %49 ]
  %16 = call nonnull align 8 dereferenceable(8) %"class.std::basic_ostream"* @_ZNSolsEi(%"class.std::basic_ostream"* nonnull align 8 dereferenceable(8) @_ZSt4cout, i32 %15)
  %17 = bitcast %"class.std::basic_ostream"* %16 to i8**
  %18 = load i8*, i8** %17, align 8, !tbaa !11
  %19 = getelementptr i8, i8* %18, i64 -24
  %20 = bitcast i8* %19 to i64*
  %21 = load i64, i64* %20, align 8
  %22 = bitcast %"class.std::basic_ostream"* %16 to i8*
  %23 = add nsw i64 %21, 240
  %24 = getelementptr inbounds i8, i8* %22, i64 %23
  %25 = bitcast i8* %24 to %"class.std::ctype"**
  %26 = load %"class.std::ctype"*, %"class.std::ctype"** %25, align 8, !tbaa !13
  %27 = icmp eq %"class.std::ctype"* %26, null
  br i1 %27, label %28, label %29

28:                                               ; preds = %14
  call void @_ZSt16__throw_bad_castv() #9
  unreachable

29:                                               ; preds = %14
  %30 = getelementptr inbounds %"class.std::ctype", %"class.std::ctype"* %26, i64 0, i32 8
  %31 = load i8, i8* %30, align 8, !tbaa !17
  %32 = icmp eq i8 %31, 0
  br i1 %32, label %36, label %33

33:                                               ; preds = %29
  %34 = getelementptr inbounds %"class.std::ctype", %"class.std::ctype"* %26, i64 0, i32 9, i64 10
  %35 = load i8, i8* %34, align 1, !tbaa !19
  br label %42

36:                                               ; preds = %29
  call void @_ZNKSt5ctypeIcE13_M_widen_initEv(%"class.std::ctype"* nonnull align 8 dereferenceable(570) %26)
  %37 = bitcast %"class.std::ctype"* %26 to i8 (%"class.std::ctype"*, i8)***
  %38 = load i8 (%"class.std::ctype"*, i8)**, i8 (%"class.std::ctype"*, i8)*** %37, align 8, !tbaa !11
  %39 = getelementptr inbounds i8 (%"class.std::ctype"*, i8)*, i8 (%"class.std::ctype"*, i8)** %38, i64 6
  %40 = load i8 (%"class.std::ctype"*, i8)*, i8 (%"class.std::ctype"*, i8)** %39, align 8
  %41 = call signext i8 %40(%"class.std::ctype"* nonnull align 8 dereferenceable(570) %26, i8 signext 10)
  br label %42

42:                                               ; preds = %33, %36
  %43 = phi i8 [ %35, %33 ], [ %41, %36 ]
  %44 = call nonnull align 8 dereferenceable(8) %"class.std::basic_ostream"* @_ZNSo3putEc(%"class.std::basic_ostream"* nonnull align 8 dereferenceable(8) %16, i8 signext %43)
  %45 = call nonnull align 8 dereferenceable(8) %"class.std::basic_ostream"* @_ZNSo5flushEv(%"class.std::basic_ostream"* nonnull align 8 dereferenceable(8) %44)
  %46 = add nuw nsw i32 %10, 1
  %47 = load i32, i32* %1, align 4, !tbaa !7
  %48 = icmp slt i32 %10, %47
  br i1 %48, label %9, label %8, !llvm.loop !20

49:                                               ; preds = %9, %49
  %50 = phi i32 [ %54, %49 ], [ 2, %9 ]
  %51 = phi i32 [ %53, %49 ], [ 0, %9 ]
  %52 = call i32 @_Z5countii(i32 %12, i32 %50)
  %53 = add nsw i32 %52, %51
  %54 = add nuw i32 %50, 1
  %55 = icmp eq i32 %50, %12
  br i1 %55, label %14, label %49, !llvm.loop !21
}

declare nonnull align 8 dereferenceable(16) %"class.std::basic_istream"* @_ZNSirsERi(%"class.std::basic_istream"* nonnull align 8 dereferenceable(16), i32* nonnull align 4 dereferenceable(4)) local_unnamed_addr #0

declare nonnull align 8 dereferenceable(8) %"class.std::basic_ostream"* @_ZNSolsEi(%"class.std::basic_ostream"* nonnull align 8 dereferenceable(8), i32) local_unnamed_addr #0

declare nonnull align 8 dereferenceable(8) %"class.std::basic_ostream"* @_ZNSo3putEc(%"class.std::basic_ostream"* nonnull align 8 dereferenceable(8), i8 signext) local_unnamed_addr #0

declare nonnull align 8 dereferenceable(8) %"class.std::basic_ostream"* @_ZNSo5flushEv(%"class.std::basic_ostream"* nonnull align 8 dereferenceable(8)) local_unnamed_addr #0

; Function Attrs: noreturn
declare void @_ZSt16__throw_bad_castv() local_unnamed_addr #6

declare void @_ZNKSt5ctypeIcE13_M_widen_initEv(%"class.std::ctype"* nonnull align 8 dereferenceable(570)) local_unnamed_addr #0

; Function Attrs: sspstrong uwtable
define internal void @_GLOBAL__sub_I_1098.cpp() #7 section ".text.startup" {
  tail call void @_ZNSt8ios_base4InitC1Ev(%"class.std::ios_base::Init"* nonnull align 1 dereferenceable(1) @_ZStL8__ioinit)
  %1 = tail call i32 @__cxa_atexit(void (i8*)* bitcast (void (%"class.std::ios_base::Init"*)* @_ZNSt8ios_base4InitD1Ev to void (i8*)*), i8* getelementptr inbounds (%"class.std::ios_base::Init", %"class.std::ios_base::Init"* @_ZStL8__ioinit, i64 0, i32 0), i8* nonnull @__dso_handle) #8
  ret void
}


!llvm.module.flags = !{!0, !1, !2, !3}
!llvm.ident = !{!4}

!0 = !{i32 1, !"wchar_size", i32 4}
!1 = !{i32 7, !"PIC Level", i32 2}
!2 = !{i32 7, !"PIE Level", i32 2}
!3 = !{i32 7, !"uwtable", i32 1}
!4 = !{!"clang version 13.0.0"}
!5 = distinct !{!5, !6}
!6 = !{!"llvm.loop.mustprogress"}
!7 = !{!8, !8, i64 0}
!8 = !{!"int", !9, i64 0}
!9 = !{!"omnipotent char", !10, i64 0}
!10 = !{!"Simple C++ TBAA"}
!11 = !{!12, !12, i64 0}
!12 = !{!"vtable pointer", !10, i64 0}
!13 = !{!14, !15, i64 240}
!14 = !{!"_ZTSSt9basic_iosIcSt11char_traitsIcEE", !15, i64 216, !9, i64 224, !16, i64 225, !15, i64 232, !15, i64 240, !15, i64 248, !15, i64 256}
!15 = !{!"any pointer", !9, i64 0}
!16 = !{!"bool", !9, i64 0}
!17 = !{!18, !9, i64 56}
!18 = !{!"_ZTSSt5ctypeIcE", !15, i64 16, !16, i64 24, !15, i64 32, !15, i64 40, !15, i64 48, !9, i64 56, !9, i64 57, !9, i64 313, !9, i64 569}
!19 = !{!9, !9, i64 0}
!20 = distinct !{!20, !6}
!21 = distinct !{!21, !6}
